target datalayout = "e-m:e-p270:32:32-p271:32:32-p272:64:64-i64:64-i128:128-f80:128-n8:16:32:64-S128"
target triple = "x86_64-pc-linux-gnu"

%struct.aclSelector = type { i32, [16 x i64], ptr, ptr, ptr, ptr }
%struct.listNode = type { ptr, ptr, ptr }
%struct.listIter = type { ptr, i32 }

@.str.40 = private unnamed_addr constant [2 x i8] c" \00", align 1
@.str.53 = private unnamed_addr constant [4 x i8] c"~* \00", align 1
@.str.54 = private unnamed_addr constant [4 x i8] c"&* \00", align 1
@.str.55 = private unnamed_addr constant [15 x i8] c"resetchannels \00", align 1
@.str.56 = private unnamed_addr constant [2 x i8] c"&\00", align 1

; Function Attrs: nounwind uwtable
define dso_local ptr @ACLDescribeSelector(ptr noundef %0) #0 {
  %2 = alloca ptr, align 8
  %3 = alloca %struct.listIter, align 8
  %4 = alloca ptr, align 8
  %5 = alloca ptr, align 8
  %6 = alloca ptr, align 8
  %7 = alloca ptr, align 8
  %8 = alloca ptr, align 8
  store ptr %0, ptr %2, align 8, !tbaa !32
  call void @llvm.lifetime.start.p0(i64 16, ptr %3) #14
  call void @llvm.lifetime.start.p0(i64 8, ptr %4) #14
  call void @llvm.lifetime.start.p0(i64 8, ptr %5) #14
  %9 = call ptr @sdsempty()
  store ptr %9, ptr %5, align 8, !tbaa !5
  %10 = load ptr, ptr %2, align 8, !tbaa !32
  %11 = getelementptr inbounds nuw %struct.aclSelector, ptr %10, i32 0, i32 0
  %12 = load i32, ptr %11, align 8, !tbaa !64
  %13 = and i32 %12, 2
  %14 = icmp ne i32 %13, 0
  br i1 %14, label %15, label %18

15:                                               ; preds = %1
  %16 = load ptr, ptr %5, align 8, !tbaa !5
  %17 = call ptr @sdscatlen(ptr noundef %16, ptr noundef @.str.53, i64 noundef 3)
  store ptr %17, ptr %5, align 8, !tbaa !5
  br label %35

18:                                               ; preds = %1
  %19 = load ptr, ptr %2, align 8, !tbaa !32
  %20 = getelementptr inbounds nuw %struct.aclSelector, ptr %19, i32 0, i32 3
  %21 = load ptr, ptr %20, align 8, !tbaa !67
  call void @listRewind(ptr noundef %21, ptr noundef %3)
  br label %22

22:                                               ; preds = %25, %18
  %23 = call ptr @listNext(ptr noundef %3)
  store ptr %23, ptr %4, align 8, !tbaa !94
  %24 = icmp ne ptr %23, null
  br i1 %24, label %25, label %34

25:                                               ; preds = %22
  call void @llvm.lifetime.start.p0(i64 8, ptr %6) #14
  %26 = load ptr, ptr %4, align 8, !tbaa !94
  %27 = getelementptr inbounds nuw %struct.listNode, ptr %26, i32 0, i32 2
  %28 = load ptr, ptr %27, align 8, !tbaa !86
  store ptr %28, ptr %6, align 8, !tbaa !32
  %29 = load ptr, ptr %5, align 8, !tbaa !5
  %30 = load ptr, ptr %6, align 8, !tbaa !32
  %31 = call ptr @sdsCatPatternString(ptr noundef %29, ptr noundef %30)
  store ptr %31, ptr %5, align 8, !tbaa !5
  %32 = load ptr, ptr %5, align 8, !tbaa !5
  %33 = call ptr @sdscatlen(ptr noundef %32, ptr noundef @.str.40, i64 noundef 1)
  store ptr %33, ptr %5, align 8, !tbaa !5
  call void @llvm.lifetime.end.p0(i64 8, ptr %6) #14
  br label %22, !llvm.loop !140

34:                                               ; preds = %22
  br label %35

35:                                               ; preds = %34, %15
  %36 = load ptr, ptr %2, align 8, !tbaa !32
  %37 = getelementptr inbounds nuw %struct.aclSelector, ptr %36, i32 0, i32 0
  %38 = load i32, ptr %37, align 8, !tbaa !64
  %39 = and i32 %38, 8
  %40 = icmp ne i32 %39, 0
  br i1 %40, label %41, label %44

41:                                               ; preds = %35
  %42 = load ptr, ptr %5, align 8, !tbaa !5
  %43 = call ptr @sdscatlen(ptr noundef %42, ptr noundef @.str.54, i64 noundef 3)
  store ptr %43, ptr %5, align 8, !tbaa !5
  br label %65

44:                                               ; preds = %35
  %45 = load ptr, ptr %5, align 8, !tbaa !5
  %46 = call ptr @sdscatlen(ptr noundef %45, ptr noundef @.str.55, i64 noundef 14)
  store ptr %46, ptr %5, align 8, !tbaa !5
  %47 = load ptr, ptr %2, align 8, !tbaa !32
  %48 = getelementptr inbounds nuw %struct.aclSelector, ptr %47, i32 0, i32 4
  %49 = load ptr, ptr %48, align 8, !tbaa !68
  call void @listRewind(ptr noundef %49, ptr noundef %3)
  br label %50

50:                                               ; preds = %53, %44
  %51 = call ptr @listNext(ptr noundef %3)
  store ptr %51, ptr %4, align 8, !tbaa !94
  %52 = icmp ne ptr %51, null
  br i1 %52, label %53, label %64

53:                                               ; preds = %50
  call void @llvm.lifetime.start.p0(i64 8, ptr %7) #14
  %54 = load ptr, ptr %4, align 8, !tbaa !94
  %55 = getelementptr inbounds nuw %struct.listNode, ptr %54, i32 0, i32 2
  %56 = load ptr, ptr %55, align 8, !tbaa !86
  store ptr %56, ptr %7, align 8, !tbaa !5
  %57 = load ptr, ptr %5, align 8, !tbaa !5
  %58 = call ptr @sdscatlen(ptr noundef %57, ptr noundef @.str.56, i64 noundef 1)
  store ptr %58, ptr %5, align 8, !tbaa !5
  %59 = load ptr, ptr %5, align 8, !tbaa !5
  %60 = load ptr, ptr %7, align 8, !tbaa !5
  %61 = call ptr @sdscatsds(ptr noundef %59, ptr noundef %60)
  store ptr %61, ptr %5, align 8, !tbaa !5
  %62 = load ptr, ptr %5, align 8, !tbaa !5
  %63 = call ptr @sdscatlen(ptr noundef %62, ptr noundef @.str.40, i64 noundef 1)
  store ptr %63, ptr %5, align 8, !tbaa !5
  call void @llvm.lifetime.end.p0(i64 8, ptr %7) #14
  br label %50, !llvm.loop !141

64:                                               ; preds = %50
  br label %65

65:                                               ; preds = %64, %41
  call void @llvm.lifetime.start.p0(i64 8, ptr %8) #14
  %66 = load ptr, ptr %2, align 8, !tbaa !32
  %67 = call ptr @ACLDescribeSelectorCommandRules(ptr noundef %66)
  store ptr %67, ptr %8, align 8, !tbaa !5
  %68 = load ptr, ptr %5, align 8, !tbaa !5
  %69 = load ptr, ptr %8, align 8, !tbaa !5
  %70 = call ptr @sdscatsds(ptr noundef %68, ptr noundef %69)
  store ptr %70, ptr %5, align 8, !tbaa !5
  %71 = load ptr, ptr %8, align 8, !tbaa !5
  call void @sdsfree(ptr noundef %71)
  %72 = load ptr, ptr %5, align 8, !tbaa !5
  call void @llvm.lifetime.end.p0(i64 8, ptr %8) #14
  call void @llvm.lifetime.end.p0(i64 8, ptr %5) #14
  call void @llvm.lifetime.end.p0(i64 8, ptr %4) #14
  call void @llvm.lifetime.end.p0(i64 16, ptr %3) #14
  ret ptr %72
}