; Function Attrs: nounwind uwtable
define dso_local ptr @ACLDescribeSelector(ptr noundef readonly captures(none) %0) local_unnamed_addr #0 {
  %2 = alloca %struct.listIter, align 8
  call void @llvm.lifetime.start.p0(i64 16, ptr nonnull %2) #25
  %3 = tail call ptr @sdsempty() #25
  %4 = load i32, ptr %0, align 8, !tbaa !61
  %5 = and i32 %4, 2
  %.not = icmp eq i32 %5, 0
  br i1 %.not, label %8, label %6

6:                                                ; preds = %1
  %7 = tail call ptr @sdscatlen(ptr noundef %3, ptr noundef nonnull @.str.53, i64 noundef 3) #25
  br label %.loopexit26

8:                                                ; preds = %1
  %9 = getelementptr inbounds nuw i8, ptr %0, i64 144
  %10 = load ptr, ptr %9, align 8, !tbaa !64
  call void @listRewind(ptr noundef %10, ptr noundef nonnull %2) #25
  %11 = call ptr @listNext(ptr noundef nonnull %2) #25
  %.not2327 = icmp eq ptr %11, null
  br i1 %.not2327, label %.loopexit26, label %.lr.ph

.lr.ph:                                           ; preds = %8, %.lr.ph
  %12 = phi ptr [ %17, %.lr.ph ], [ %11, %8 ]
  %.128 = phi ptr [ %16, %.lr.ph ], [ %3, %8 ]
  %13 = getelementptr inbounds nuw i8, ptr %12, i64 16
  %14 = load ptr, ptr %13, align 8, !tbaa !85
  %15 = call ptr @sdsCatPatternString(ptr noundef %.128, ptr noundef %14)
  %16 = call ptr @sdscatlen(ptr noundef %15, ptr noundef nonnull @.str.40, i64 noundef 1) #25
  %17 = call ptr @listNext(ptr noundef nonnull %2) #25
  %.not23 = icmp eq ptr %17, null
  br i1 %.not23, label %.loopexit26, label %.lr.ph, !llvm.loop !132

.loopexit26:                                      ; preds = %.lr.ph, %8, %6
  %.0 = phi ptr [ %7, %6 ], [ %3, %8 ], [ %16, %.lr.ph ]
  %18 = load i32, ptr %0, align 8, !tbaa !61
  %19 = and i32 %18, 8
  %.not24 = icmp eq i32 %19, 0
  br i1 %.not24, label %22, label %20

20:                                               ; preds = %.loopexit26
  %21 = call ptr @sdscatlen(ptr noundef %.0, ptr noundef nonnull @.str.54, i64 noundef 3) #25
  br label %.loopexit

22:                                               ; preds = %.loopexit26
  %23 = call ptr @sdscatlen(ptr noundef %.0, ptr noundef nonnull @.str.55, i64 noundef 14) #25
  %24 = getelementptr inbounds nuw i8, ptr %0, i64 152
  %25 = load ptr, ptr %24, align 8, !tbaa !65
  call void @listRewind(ptr noundef %25, ptr noundef nonnull %2) #25
  %26 = call ptr @listNext(ptr noundef nonnull %2) #25
  %.not2529 = icmp eq ptr %26, null
  br i1 %.not2529, label %.loopexit, label %.lr.ph31

.lr.ph31:                                         ; preds = %22, %.lr.ph31
  %27 = phi ptr [ %33, %.lr.ph31 ], [ %26, %22 ]
  %.330 = phi ptr [ %32, %.lr.ph31 ], [ %23, %22 ]
  %28 = getelementptr inbounds nuw i8, ptr %27, i64 16
  %29 = load ptr, ptr %28, align 8, !tbaa !85
  %30 = call ptr @sdscatlen(ptr noundef %.330, ptr noundef nonnull @.str.56, i64 noundef 1) #25
  %31 = call ptr @sdscatsds(ptr noundef %30, ptr noundef %29) #25
  %32 = call ptr @sdscatlen(ptr noundef %31, ptr noundef nonnull @.str.40, i64 noundef 1) #25
  %33 = call ptr @listNext(ptr noundef nonnull %2) #25
  %.not25 = icmp eq ptr %33, null
  br i1 %.not25, label %.loopexit, label %.lr.ph31, !llvm.loop !133

.loopexit:                                        ; preds = %.lr.ph31, %22, %20
  %.2 = phi ptr [ %21, %20 ], [ %23, %22 ], [ %32, %.lr.ph31 ]
  %34 = call ptr @ACLDescribeSelectorCommandRules(ptr noundef nonnull %0)
  %35 = call ptr @sdscatsds(ptr noundef %.2, ptr noundef %34) #25
  call void @sdsfree(ptr noundef %34) #25
  call void @llvm.lifetime.end.p0(i64 16, ptr nonnull %2) #25
  ret ptr %35
}